target datalayout = "e-m:e-p270:32:32-p271:32:32-p272:64:64-i64:64-i128:128-f80:128-n8:16:32:64-S128"
target triple = "x86_64-pc-linux-gnu"

%struct.ossl_cmp_crlstatus_st = type { ptr, ptr }
%struct.ossl_cmp_crlsource_st = type { i32, %union.anon.1 }
%union.anon.1 = type { ptr }

@OSSL_CMP_CRLSTATUS_it.local_it = internal constant { i8, [7 x i8], i64, ptr, i64, ptr, i64, ptr } { i8 1, [7 x i8] zeroinitializer, i64 16, ptr @OSSL_CMP_CRLSTATUS_seq_tt, i64 2, ptr null, i64 16, ptr @.str.11 }, align 8
@.str.12 = private unnamed_addr constant [32 x i8] c"../openssl/crypto/cmp/cmp_asn.c\00", align 1
@__func__.OSSL_CMP_CRLSTATUS_new1 = private unnamed_addr constant [24 x i8] c"OSSL_CMP_CRLSTATUS_new1\00", align 1

; Function Attrs: nounwind uwtable
define ptr @OSSL_CMP_CRLSTATUS_it() #0 {
  ret ptr @OSSL_CMP_CRLSTATUS_it.local_it
}

; Function Attrs: nounwind uwtable
define void @OSSL_CMP_CRLSTATUS_free(ptr noundef %0) #0 {
  %2 = alloca ptr, align 8
  store ptr %0, ptr %2, align 8, !tbaa !48
  %3 = load ptr, ptr %2, align 8, !tbaa !48
  %4 = call ptr @OSSL_CMP_CRLSTATUS_it()
  call void @ASN1_item_free(ptr noundef %3, ptr noundef %4)
  ret void
}

; Function Attrs: inlinehint nounwind uwtable
define internal ptr @ossl_check_GENERAL_NAME_freefunc_type(ptr noundef %0) #3 {
  %2 = alloca ptr, align 8
  store ptr %0, ptr %2, align 8, !tbaa !69
  %3 = load ptr, ptr %2, align 8, !tbaa !69
  ret ptr %3
}

; Function Attrs: inlinehint nounwind uwtable
define internal ptr @ossl_check_GENERAL_NAME_copyfunc_type(ptr noundef %0) #3 {
  %2 = alloca ptr, align 8
  store ptr %0, ptr %2, align 8, !tbaa !69
  %3 = load ptr, ptr %2, align 8, !tbaa !69
  ret ptr %3
}

; Function Attrs: inlinehint nounwind uwtable
define internal ptr @ossl_check_const_GENERAL_NAME_sk_type(ptr noundef %0) #3 {
  %2 = alloca ptr, align 8
  store ptr %0, ptr %2, align 8, !tbaa !105
  %3 = load ptr, ptr %2, align 8, !tbaa !105
  ret ptr %3
}

; Function Attrs: nounwind uwtable
define ptr @OSSL_CMP_CRLSTATUS_new() #0 {
  %1 = call ptr @OSSL_CMP_CRLSTATUS_it()
  %2 = call ptr @ASN1_item_new(ptr noundef %1)
  ret ptr %2
}

; Function Attrs: nounwind uwtable
define ptr @OSSL_CMP_CRLSTATUS_new1(ptr noundef %0, ptr noundef %1, ptr noundef %2) #0 {
  %4 = alloca ptr, align 8
  %5 = alloca ptr, align 8
  %6 = alloca ptr, align 8
  %7 = alloca ptr, align 8
  %8 = alloca ptr, align 8
  %9 = alloca ptr, align 8
  %10 = alloca i32, align 4
  store ptr %0, ptr %5, align 8, !tbaa !103
  store ptr %1, ptr %6, align 8, !tbaa !105
  store ptr %2, ptr %7, align 8, !tbaa !97
  call void @llvm.lifetime.start.p0(i64 8, ptr %8) #4
  call void @llvm.lifetime.start.p0(i64 8, ptr %9) #4
  %11 = load ptr, ptr %5, align 8, !tbaa !103
  %12 = icmp eq ptr %11, null
  br i1 %12, label %13, label %17

13:                                               ; preds = %3
  %14 = load ptr, ptr %6, align 8, !tbaa !105
  %15 = icmp eq ptr %14, null
  br i1 %15, label %16, label %17

16:                                               ; preds = %13
  call void @ERR_new()
  call void @ERR_set_debug(ptr noundef @.str.12, i32 noundef 627, ptr noundef @__func__.OSSL_CMP_CRLSTATUS_new1)
  call void (i32, i32, ptr, ...) @ERR_set_error(i32 noundef 58, i32 noundef 786690, ptr noundef null)
  store ptr null, ptr %4, align 8
  store i32 1, ptr %10, align 4
  br label %71

17:                                               ; preds = %13, %3
  %18 = load ptr, ptr %5, align 8, !tbaa !103
  %19 = icmp ne ptr %18, null
  br i1 %19, label %20, label %24

20:                                               ; preds = %17
  %21 = load ptr, ptr %6, align 8, !tbaa !105
  %22 = icmp ne ptr %21, null
  br i1 %22, label %23, label %24

23:                                               ; preds = %20
  call void @ERR_new()
  call void @ERR_set_debug(ptr noundef @.str.12, i32 noundef 631, ptr noundef @__func__.OSSL_CMP_CRLSTATUS_new1)
  call void (i32, i32, ptr, ...) @ERR_set_error(i32 noundef 58, i32 noundef 524550, ptr noundef null)
  store ptr null, ptr %4, align 8
  store i32 1, ptr %10, align 4
  br label %71

24:                                               ; preds = %20, %17
  %25 = call ptr @OSSL_CMP_CRLSTATUS_new()
  store ptr %25, ptr %9, align 8, !tbaa !48
  %26 = icmp eq ptr %25, null
  br i1 %26, label %27, label %28

27:                                               ; preds = %24
  store ptr null, ptr %4, align 8
  store i32 1, ptr %10, align 4
  br label %71

28:                                               ; preds = %24
  %29 = load ptr, ptr %9, align 8, !tbaa !48
  %30 = getelementptr inbounds nuw %struct.ossl_cmp_crlstatus_st, ptr %29, i32 0, i32 0
  %31 = load ptr, ptr %30, align 8, !tbaa !107
  store ptr %31, ptr %8, align 8, !tbaa !44
  %32 = load ptr, ptr %5, align 8, !tbaa !103
  %33 = icmp ne ptr %32, null
  br i1 %33, label %34, label %44

34:                                               ; preds = %28
  %35 = load ptr, ptr %8, align 8, !tbaa !44
  %36 = getelementptr inbounds nuw %struct.ossl_cmp_crlsource_st, ptr %35, i32 0, i32 0
  store i32 0, ptr %36, align 8, !tbaa !109
  %37 = load ptr, ptr %5, align 8, !tbaa !103
  %38 = call ptr @DIST_POINT_NAME_dup(ptr noundef %37)
  %39 = load ptr, ptr %8, align 8, !tbaa !44
  %40 = getelementptr inbounds nuw %struct.ossl_cmp_crlsource_st, ptr %39, i32 0, i32 1
  store ptr %38, ptr %40, align 8, !tbaa !56
  %41 = icmp eq ptr %38, null
  br i1 %41, label %42, label %43

42:                                               ; preds = %34
  br label %69

43:                                               ; preds = %34
  br label %57

44:                                               ; preds = %28
  %45 = load ptr, ptr %8, align 8, !tbaa !44
  %46 = getelementptr inbounds nuw %struct.ossl_cmp_crlsource_st, ptr %45, i32 0, i32 0
  store i32 1, ptr %46, align 8, !tbaa !109
  %47 = load ptr, ptr %6, align 8, !tbaa !105
  %48 = call ptr @ossl_check_const_GENERAL_NAME_sk_type(ptr noundef %47)
  %49 = call ptr @ossl_check_GENERAL_NAME_copyfunc_type(ptr noundef @GENERAL_NAME_dup)
  %50 = call ptr @ossl_check_GENERAL_NAME_freefunc_type(ptr noundef @GENERAL_NAME_free)
  %51 = call ptr @OPENSSL_sk_deep_copy(ptr noundef %48, ptr noundef %49, ptr noundef %50)
  %52 = load ptr, ptr %8, align 8, !tbaa !44
  %53 = getelementptr inbounds nuw %struct.ossl_cmp_crlsource_st, ptr %52, i32 0, i32 1
  store ptr %51, ptr %53, align 8, !tbaa !56
  %54 = icmp eq ptr %51, null
  br i1 %54, label %55, label %56

55:                                               ; preds = %44
  br label %69

56:                                               ; preds = %44
  br label %57

57:                                               ; preds = %56, %43
  %58 = load ptr, ptr %7, align 8, !tbaa !97
  %59 = icmp ne ptr %58, null
  br i1 %59, label %60, label %67

60:                                               ; preds = %57
  %61 = load ptr, ptr %7, align 8, !tbaa !97
  %62 = call ptr @ASN1_TIME_dup(ptr noundef %61)
  %63 = load ptr, ptr %9, align 8, !tbaa !48
  %64 = getelementptr inbounds nuw %struct.ossl_cmp_crlstatus_st, ptr %63, i32 0, i32 1
  store ptr %62, ptr %64, align 8, !tbaa !111
  %65 = icmp eq ptr %62, null
  br i1 %65, label %66, label %67

66:                                               ; preds = %60
  br label %69

67:                                               ; preds = %60, %57
  %68 = load ptr, ptr %9, align 8, !tbaa !48
  store ptr %68, ptr %4, align 8
  store i32 1, ptr %10, align 4
  br label %71

69:                                               ; preds = %66, %55, %42
  %70 = load ptr, ptr %9, align 8, !tbaa !48
  call void @OSSL_CMP_CRLSTATUS_free(ptr noundef %70)
  store ptr null, ptr %4, align 8
  store i32 1, ptr %10, align 4
  br label %71

71:                                               ; preds = %69, %67, %27, %23, %16
  call void @llvm.lifetime.end.p0(i64 8, ptr %9) #4
  call void @llvm.lifetime.end.p0(i64 8, ptr %8) #4
  %72 = load ptr, ptr %4, align 8
  ret ptr %72
}