; Function Attrs: nounwind uwtable
define ptr @OSSL_CMP_CRLSTATUS_new1(ptr noundef %0, ptr noundef %1, ptr noundef %2) local_unnamed_addr #1 {
  %4 = icmp eq ptr %0, null
  %5 = icmp eq ptr %1, null
  %or.cond = and i1 %4, %5
  br i1 %or.cond, label %6, label %7

6:                                                ; preds = %3
  tail call void @ERR_new() #6
  tail call void @ERR_set_debug(ptr noundef nonnull @.str.12, i32 noundef 627, ptr noundef nonnull @__func__.OSSL_CMP_CRLSTATUS_new1) #6
  tail call void (i32, i32, ptr, ...) @ERR_set_error(i32 noundef 58, i32 noundef 786690, ptr noundef null) #6
  br label %29

7:                                                ; preds = %3
  %8 = icmp ne ptr %0, null
  %9 = icmp ne ptr %1, null
  %or.cond3 = and i1 %8, %9
  br i1 %or.cond3, label %10, label %11

10:                                               ; preds = %7
  tail call void @ERR_new() #6
  tail call void @ERR_set_debug(ptr noundef nonnull @.str.12, i32 noundef 631, ptr noundef nonnull @__func__.OSSL_CMP_CRLSTATUS_new1) #6
  tail call void (i32, i32, ptr, ...) @ERR_set_error(i32 noundef 58, i32 noundef 524550, ptr noundef null) #6
  br label %29

11:                                               ; preds = %7
  %12 = tail call ptr @ASN1_item_new(ptr noundef nonnull @OSSL_CMP_CRLSTATUS_it.local_it) #6
  %13 = icmp eq ptr %12, null
  br i1 %13, label %29, label %14

14:                                               ; preds = %11
  %15 = load ptr, ptr %12, align 8, !tbaa !37
  %16 = getelementptr inbounds nuw i8, ptr %15, i64 8
  br i1 %8, label %17, label %20

17:                                               ; preds = %14
  store i32 0, ptr %15, align 8, !tbaa !41
  %18 = tail call ptr @DIST_POINT_NAME_dup(ptr noundef nonnull %0) #6
  store ptr %18, ptr %16, align 8, !tbaa !9
  %19 = icmp eq ptr %18, null
  br i1 %19, label %28, label %23

20:                                               ; preds = %14
  store i32 1, ptr %15, align 8, !tbaa !41
  %21 = tail call ptr @OPENSSL_sk_deep_copy(ptr noundef %1, ptr noundef nonnull @GENERAL_NAME_dup, ptr noundef nonnull @GENERAL_NAME_free) #6
  store ptr %21, ptr %16, align 8, !tbaa !9
  %22 = icmp eq ptr %21, null
  br i1 %22, label %28, label %23

23:                                               ; preds = %20, %17
  %.not = icmp eq ptr %2, null
  br i1 %.not, label %29, label %24

24:                                               ; preds = %23
  %25 = tail call ptr @ASN1_TIME_dup(ptr noundef nonnull %2) #6
  %26 = getelementptr inbounds nuw i8, ptr %12, i64 8
  store ptr %25, ptr %26, align 8, !tbaa !44
  %27 = icmp eq ptr %25, null
  br i1 %27, label %28, label %29

28:                                               ; preds = %24, %20, %17
  tail call void @ASN1_item_free(ptr noundef nonnull %12, ptr noundef nonnull @OSSL_CMP_CRLSTATUS_it.local_it) #6
  br label %29

29:                                               ; preds = %23, %24, %11, %28, %10, %6
  %.0 = phi ptr [ null, %6 ], [ null, %10 ], [ null, %28 ], [ null, %11 ], [ %12, %24 ], [ %12, %23 ]
  ret ptr %.0
}